target datalayout = "e-m:e-p270:32:32-p271:32:32-p272:64:64-i64:64-i128:128-f80:128-n8:16:32:64-S128"
target triple = "x86_64-pc-linux-gnu"

@.str.1 = private unnamed_addr constant [11 x i8] c"0123456789\00", align 1

; Function Attrs: nounwind uwtable
define dso_local i32 @xdl_num_out(ptr noundef %0, i64 noundef %1) #0 {
  %3 = alloca ptr, align 8
  %4 = alloca i64, align 8
  %5 = alloca ptr, align 8
  %6 = alloca ptr, align 8
  %7 = alloca [32 x i8], align 16
  store ptr %0, ptr %3, align 8, !tbaa !10
  store i64 %1, ptr %4, align 8, !tbaa !4
  call void @llvm.lifetime.start.p0(i64 8, ptr %5) #6
  call void @llvm.lifetime.start.p0(i64 8, ptr %6) #6
  %8 = load ptr, ptr %3, align 8, !tbaa !10
  store ptr %8, ptr %6, align 8, !tbaa !10
  call void @llvm.lifetime.start.p0(i64 32, ptr %7) #6
  %9 = getelementptr inbounds [32 x i8], ptr %7, i64 0, i64 0
  %10 = getelementptr inbounds nuw i8, ptr %9, i64 32
  %11 = getelementptr inbounds i8, ptr %10, i64 -1
  store ptr %11, ptr %5, align 8, !tbaa !10
  %12 = load ptr, ptr %5, align 8, !tbaa !10
  store i8 0, ptr %12, align 1, !tbaa !20
  %13 = load i64, ptr %4, align 8, !tbaa !4
  %14 = icmp slt i64 %13, 0
  br i1 %14, label %15, label %20

15:                                               ; preds = %2
  %16 = load ptr, ptr %5, align 8, !tbaa !10
  %17 = getelementptr inbounds i8, ptr %16, i32 -1
  store ptr %17, ptr %5, align 8, !tbaa !10
  store i8 45, ptr %17, align 1, !tbaa !20
  %18 = load i64, ptr %4, align 8, !tbaa !4
  %19 = sub nsw i64 0, %18
  store i64 %19, ptr %4, align 8, !tbaa !4
  br label %20

20:                                               ; preds = %15, %2
  br label %21

21:                                               ; preds = %37, %20
  %22 = load i64, ptr %4, align 8, !tbaa !4
  %23 = icmp ne i64 %22, 0
  br i1 %23, label %24, label %28

24:                                               ; preds = %21
  %25 = load ptr, ptr %5, align 8, !tbaa !10
  %26 = getelementptr inbounds [32 x i8], ptr %7, i64 0, i64 0
  %27 = icmp ugt ptr %25, %26
  br label %28

28:                                               ; preds = %24, %21
  %29 = phi i1 [ false, %21 ], [ %27, %24 ]
  br i1 %29, label %30, label %40

30:                                               ; preds = %28
  %31 = load i64, ptr %4, align 8, !tbaa !4
  %32 = srem i64 %31, 10
  %33 = getelementptr inbounds [11 x i8], ptr @.str.1, i64 0, i64 %32
  %34 = load i8, ptr %33, align 1, !tbaa !20
  %35 = load ptr, ptr %5, align 8, !tbaa !10
  %36 = getelementptr inbounds i8, ptr %35, i32 -1
  store ptr %36, ptr %5, align 8, !tbaa !10
  store i8 %34, ptr %36, align 1, !tbaa !20
  br label %37

37:                                               ; preds = %30
  %38 = load i64, ptr %4, align 8, !tbaa !4
  %39 = sdiv i64 %38, 10
  store i64 %39, ptr %4, align 8, !tbaa !4
  br label %21, !llvm.loop !67

40:                                               ; preds = %28
  %41 = load ptr, ptr %5, align 8, !tbaa !10
  %42 = load i8, ptr %41, align 1, !tbaa !20
  %43 = icmp ne i8 %42, 0
  br i1 %43, label %44, label %59

44:                                               ; preds = %40
  br label %45

45:                                               ; preds = %53, %44
  %46 = load ptr, ptr %5, align 8, !tbaa !10
  %47 = load i8, ptr %46, align 1, !tbaa !20
  %48 = icmp ne i8 %47, 0
  br i1 %48, label %49, label %58

49:                                               ; preds = %45
  %50 = load ptr, ptr %5, align 8, !tbaa !10
  %51 = load i8, ptr %50, align 1, !tbaa !20
  %52 = load ptr, ptr %6, align 8, !tbaa !10
  store i8 %51, ptr %52, align 1, !tbaa !20
  br label %53

53:                                               ; preds = %49
  %54 = load ptr, ptr %5, align 8, !tbaa !10
  %55 = getelementptr inbounds nuw i8, ptr %54, i32 1
  store ptr %55, ptr %5, align 8, !tbaa !10
  %56 = load ptr, ptr %6, align 8, !tbaa !10
  %57 = getelementptr inbounds nuw i8, ptr %56, i32 1
  store ptr %57, ptr %6, align 8, !tbaa !10
  br label %45, !llvm.loop !68

58:                                               ; preds = %45
  br label %62

59:                                               ; preds = %40
  %60 = load ptr, ptr %6, align 8, !tbaa !10
  %61 = getelementptr inbounds nuw i8, ptr %60, i32 1
  store ptr %61, ptr %6, align 8, !tbaa !10
  store i8 48, ptr %60, align 1, !tbaa !20
  br label %62

62:                                               ; preds = %59, %58
  %63 = load ptr, ptr %6, align 8, !tbaa !10
  store i8 0, ptr %63, align 1, !tbaa !20
  %64 = load ptr, ptr %6, align 8, !tbaa !10
  %65 = load ptr, ptr %3, align 8, !tbaa !10
  %66 = ptrtoint ptr %64 to i64
  %67 = ptrtoint ptr %65 to i64
  %68 = sub i64 %66, %67
  %69 = trunc i64 %68 to i32
  call void @llvm.lifetime.end.p0(i64 32, ptr %7) #6
  call void @llvm.lifetime.end.p0(i64 8, ptr %6) #6
  call void @llvm.lifetime.end.p0(i64 8, ptr %5) #6
  ret i32 %69
}