; Function Attrs: nofree norecurse nosync nounwind memory(argmem: write) uwtable
define dso_local noundef i32 @xdl_num_out(ptr noundef %0, i64 noundef %1) local_unnamed_addr #13 {
  %3 = alloca [32 x i8], align 16
  call void @llvm.lifetime.start.p0(i64 32, ptr nonnull %3) #18
  %4 = getelementptr inbounds nuw i8, ptr %3, i64 31
  store i8 0, ptr %4, align 1, !tbaa !14
  %5 = icmp slt i64 %1, 0
  br i1 %5, label %.thread, label %8

.thread:                                          ; preds = %2
  %6 = getelementptr inbounds nuw i8, ptr %3, i64 30
  store i8 45, ptr %6, align 2, !tbaa !14
  %7 = sub nsw i64 0, %1
  br label %.lr.ph.preheader

8:                                                ; preds = %2
  %.not31 = icmp eq i64 %1, 0
  br i1 %.not31, label %._crit_edge.thread, label %.lr.ph.preheader

.lr.ph.preheader:                                 ; preds = %.thread, %8
  %.12028.ph = phi ptr [ %4, %8 ], [ %6, %.thread ]
  %.12227.ph = phi i64 [ %1, %8 ], [ %7, %.thread ]
  br label %.lr.ph

.lr.ph:                                           ; preds = %.lr.ph.preheader, %.lr.ph
  %.12028 = phi ptr [ %12, %.lr.ph ], [ %.12028.ph, %.lr.ph.preheader ]
  %.12227 = phi i64 [ %13, %.lr.ph ], [ %.12227.ph, %.lr.ph.preheader ]
  %9 = urem i64 %.12227, 10
  %10 = getelementptr inbounds nuw [11 x i8], ptr @.str.1, i64 0, i64 %9
  %11 = load i8, ptr %10, align 1, !tbaa !14
  %12 = getelementptr inbounds i8, ptr %.12028, i64 -1
  store i8 %11, ptr %12, align 1, !tbaa !14
  %13 = udiv i64 %.12227, 10
  %14 = icmp ugt i64 %.12227, 9
  %15 = icmp ugt ptr %12, %3
  %16 = and i1 %14, %15
  br i1 %16, label %.lr.ph, label %.preheader, !llvm.loop !50

.preheader:                                       ; preds = %.lr.ph, %.preheader
  %.030 = phi ptr [ %19, %.preheader ], [ %0, %.lr.ph ]
  %.229 = phi ptr [ %18, %.preheader ], [ %12, %.lr.ph ]
  %17 = phi i8 [ %.pr, %.preheader ], [ %11, %.lr.ph ]
  store i8 %17, ptr %.030, align 1, !tbaa !14
  %18 = getelementptr inbounds nuw i8, ptr %.229, i64 1
  %19 = getelementptr inbounds nuw i8, ptr %.030, i64 1
  %.pr = load i8, ptr %18, align 1, !tbaa !14
  %.not26 = icmp eq i8 %.pr, 0
  br i1 %.not26, label %.loopexit, label %.preheader, !llvm.loop !51

._crit_edge.thread:                               ; preds = %8
  %20 = getelementptr inbounds nuw i8, ptr %0, i64 1
  store i8 48, ptr %0, align 1, !tbaa !14
  br label %.loopexit

.loopexit:                                        ; preds = %.preheader, %._crit_edge.thread
  %.1 = phi ptr [ %20, %._crit_edge.thread ], [ %19, %.preheader ]
  store i8 0, ptr %.1, align 1, !tbaa !14
  %21 = ptrtoint ptr %.1 to i64
  %22 = ptrtoint ptr %0 to i64
  %23 = sub i64 %21, %22
  %24 = trunc i64 %23 to i32
  call void @llvm.lifetime.end.p0(i64 32, ptr nonnull %3) #18
  ret i32 %24
}